(dp0
S':/'
p1
S'negative'
p2
sS':('
p3
g2
sS':)'
p4
S'positive'
p5
sS'(-:'
p6
g5
sS'(._.)'
p7
g2
sS':&'
p8
g2
sS':c)'
p9
g5
sS':<'
p10
g2
sS'v.v'
p11
g2
sS':>'
p12
g5
sS':-\xde'
p13
g5
sS'\\o/'
p14
g5
sS':3'
p15
g5
sS':*'
p16
g5
sS'=]'
p17
g5
sS'=\\'
p18
g2
sS'=D'
p19
g5
sS'--!--'
p20
g2
sS'=3'
p21
g5
sS'(-_-)'
p22
g2
sS':b'
p23
g5
sS':c'
p24
g2
sS'=/'
p25
g2
sS':p'
p26
g5
sS'<33'
p27
g5
sS':D'
p28
g5
sS'B('
p29
g2
sS":'("
p30
g2
sS':]'
p31
g5
sS':['
p32
g2
sS':P'
p33
g5
sS':S'
p34
g2
sS'8)'
p35
g5
sS'<333'
p36
g5
sS':-D'
p37
g5
sS':-P'
p38
g5
sS':\\'
p39
g2
sS'(^_^)'
p40
g5
sS':-b'
p41
g5
sS';]'
p42
g5
sS';D'
p43
g5
sS':-p'
p44
g5
sS'(^_~)'
p45
g5
sS';)'
p46
g5
sS':-*'
p47
g5
sS':-('
p48
g2
sS':-)'
p49
g5
sS':-/'
p50
g2
sS'>:-('
p51
g2
sS'8D'
p52
g5
sS'(^.^)'
p53
g5
sS'(>.<)'
p54
g2
sS'(^^)'
p55
g5
sS'(^3^)'
p56
g5
sS'(>_<)'
p57
g2
sS'(~_^)'
p58
g5
sS':o)'
p59
g5
sS'>:('
p60
g2
sS'C:'
p61
g5
sS'(^o^)'
p62
g5
sS'X3'
p63
g5
sS'o/\\o'
p64
g5
sS'XD'
p65
g5
sS'XP'
p66
g5
sS'D:<'
p67
g2
sS';*('
p68
g2
sS'=p'
p69
g5
sS'<3'
p70
g5
sS'\\m/'
p71
g5
sS'DX'
p72
g2
sS'T.T'
p73
g2
sS':\xde'
p74
g5
sS'=)'
p75
g5
sS'TT_TT'
p76
g2
sS'D='
p77
g2
sS';-)'
p78
g5
sS'</3'
p79
g2
sS'*)'
p80
g5
sS'(,_,)'
p81
g2
sS'(^-^)'
p82
g5
sS';^)'
p83
g5
sS'D-:<'
p84
g2
sS'D:'
p85
g2
sS'D;'
p86
g2
sS'D8'
p87
g2
sS'T_T'
p88
g2
s.